; Function Attrs: nounwind uwtable
define void @ossl_quic_rcidm_on_packet_sent(ptr noundef captures(none) %0, i64 noundef %1) local_unnamed_addr #0 {
  %3 = icmp eq i64 %1, 0
  br i1 %3, label %30, label %4

4:                                                ; preds = %2
  %5 = getelementptr inbounds nuw i8, ptr %0, i64 64
  %6 = load i64, ptr %5, align 8, !tbaa !27
  %7 = add i64 %6, %1
  store i64 %7, ptr %5, align 8, !tbaa !27
  %8 = getelementptr inbounds nuw i8, ptr %0, i64 136
  %9 = load i8, ptr %8, align 8
  %10 = and i8 %9, 4
  %.not.i.i = icmp eq i8 %10, 0
  br i1 %.not.i.i, label %rcidm_tick.exit, label %11

11:                                               ; preds = %4
  %12 = getelementptr inbounds nuw i8, ptr %0, i64 72
  %13 = load i64, ptr %12, align 8, !tbaa !26
  %14 = icmp eq i64 %13, 0
  br i1 %14, label %rcidm_should_roll.exit.thread.i, label %15

15:                                               ; preds = %11
  %16 = icmp ult i64 %7, 10000
  %17 = and i8 %9, 64
  %.not.i = icmp eq i8 %17, 0
  %or.cond.i = and i1 %16, %.not.i
  br i1 %or.cond.i, label %rcidm_tick.exit, label %rcidm_should_roll.exit.thread.i

rcidm_should_roll.exit.thread.i:                  ; preds = %15, %11
  %18 = getelementptr inbounds nuw i8, ptr %0, i64 88
  %19 = load ptr, ptr %18, align 8, !tbaa !3
  %20 = tail call ptr @ossl_pqueue_peek(ptr noundef %19) #9
  %21 = icmp eq ptr %20, null
  br i1 %21, label %rcidm_tick.exit, label %22

22:                                               ; preds = %rcidm_should_roll.exit.thread.i
  tail call fastcc void @rcidm_transition_rcid(ptr noundef nonnull %0, ptr noundef %20, i32 noundef 1)
  %23 = load i64, ptr %12, align 8, !tbaa !26
  %24 = add i64 %23, 1
  store i64 %24, ptr %12, align 8, !tbaa !26
  %25 = load i8, ptr %8, align 8
  %26 = and i8 %25, -65
  store i8 %26, ptr %8, align 8
  %27 = load i64, ptr %5, align 8, !tbaa !27
  %28 = icmp ugt i64 %27, 9999
  %29 = urem i64 %27, 10000
  %storemerge.i.i = select i1 %28, i64 %29, i64 0
  store i64 %storemerge.i.i, ptr %5, align 8, !tbaa !27
  br label %rcidm_tick.exit

rcidm_tick.exit:                                  ; preds = %4, %15, %rcidm_should_roll.exit.thread.i, %22
  tail call fastcc void @rcidm_update(ptr noundef nonnull %0)
  br label %30

30:                                               ; preds = %2, %rcidm_tick.exit
  ret void
}